; Function Attrs: mustprogress uwtable
define dso_local noundef nonnull align 8 dereferenceable(8) ptr @_ZN4JsonlsERSoRKNS_5ValueE(ptr noundef nonnull returned align 8 dereferenceable(8) %0, ptr noundef nonnull align 8 dereferenceable(32) %1) local_unnamed_addr #2 personality ptr @__gxx_personality_v0 {
  %3 = alloca %"class.Json::StreamWriterBuilder", align 8
  store ptr getelementptr inbounds inrange(-16, 24) ({ [5 x ptr] }, ptr @_ZTVN4Json19StreamWriterBuilderE, i64 0, i32 0, i64 2), ptr %3, align 8
  %4 = getelementptr inbounds i8, ptr %3, i64 8
  %5 = getelementptr inbounds i8, ptr %3, i64 16
  store i16 0, ptr %5, align 8
  %6 = getelementptr inbounds i8, ptr %3, i64 24
  call void @llvm.memset.p0.i64(ptr noundef nonnull align 8 dereferenceable(16) %6, i8 0, i64 16, i1 false)
  invoke void @_ZN4Json19StreamWriterBuilder11setDefaultsEPNS_5ValueE(ptr noundef nonnull %4)
          to label %_ZN4Json19StreamWriterBuilderC2Ev.exit unwind label %7

common.resume:                                    ; preds = %24, %7
  %common.resume.op = phi { ptr, i32 } [ %8, %7 ], [ %.pn, %24 ]
  call void @_ZN4Json5ValueD2Ev(ptr noundef nonnull align 8 dereferenceable(32) %4) #39
  resume { ptr, i32 } %common.resume.op

7:                                                ; preds = %2
  %8 = landingpad { ptr, i32 }
          cleanup
  br label %common.resume

_ZN4Json19StreamWriterBuilderC2Ev.exit:           ; preds = %2
  %9 = invoke noundef ptr @_ZNK4Json19StreamWriterBuilder15newStreamWriterEv(ptr noundef nonnull align 8 dereferenceable(40) %3)
          to label %10 unwind label %18

10:                                               ; preds = %_ZN4Json19StreamWriterBuilderC2Ev.exit
  %11 = load ptr, ptr %9, align 8
  %12 = getelementptr inbounds i8, ptr %11, i64 16
  %13 = load ptr, ptr %12, align 8
  %14 = invoke noundef i32 %13(ptr noundef nonnull align 8 dereferenceable(16) %9, ptr noundef nonnull align 8 dereferenceable(32) %1, ptr noundef nonnull %0)
          to label %_ZNSt10unique_ptrIN4Json12StreamWriterESt14default_deleteIS1_EED2Ev.exit unwind label %_ZNSt10unique_ptrIN4Json12StreamWriterESt14default_deleteIS1_EED2Ev.exit8

_ZNSt10unique_ptrIN4Json12StreamWriterESt14default_deleteIS1_EED2Ev.exit: ; preds = %10
  %15 = load ptr, ptr %9, align 8
  %16 = getelementptr inbounds i8, ptr %15, i64 8
  %17 = load ptr, ptr %16, align 8
  tail call void %17(ptr noundef nonnull align 8 dereferenceable(16) %9) #39
  store ptr getelementptr inbounds inrange(-16, 24) ({ [5 x ptr] }, ptr @_ZTVN4Json19StreamWriterBuilderE, i64 0, i32 0, i64 2), ptr %3, align 8
  call void @_ZN4Json5ValueD2Ev(ptr noundef nonnull align 8 dereferenceable(32) %4) #39
  ret ptr %0

18:                                               ; preds = %_ZN4Json19StreamWriterBuilderC2Ev.exit
  %19 = landingpad { ptr, i32 }
          cleanup
  br label %24

_ZNSt10unique_ptrIN4Json12StreamWriterESt14default_deleteIS1_EED2Ev.exit8: ; preds = %10
  %20 = landingpad { ptr, i32 }
          cleanup
  %21 = load ptr, ptr %9, align 8
  %22 = getelementptr inbounds i8, ptr %21, i64 8
  %23 = load ptr, ptr %22, align 8
  tail call void %23(ptr noundef nonnull align 8 dereferenceable(16) %9) #39
  br label %24

24:                                               ; preds = %_ZNSt10unique_ptrIN4Json12StreamWriterESt14default_deleteIS1_EED2Ev.exit8, %18
  %.pn = phi { ptr, i32 } [ %20, %_ZNSt10unique_ptrIN4Json12StreamWriterESt14default_deleteIS1_EED2Ev.exit8 ], [ %19, %18 ]
  store ptr getelementptr inbounds inrange(-16, 24) ({ [5 x ptr] }, ptr @_ZTVN4Json19StreamWriterBuilderE, i64 0, i32 0, i64 2), ptr %3, align 8
  br label %common.resume
}